target datalayout = "e-m:e-p270:32:32-p271:32:32-p272:64:64-i64:64-i128:128-f80:128-n8:16:32:64-S128"
target triple = "x86_64-pc-linux-gnu"

%"class.std::__cxx11::basic_string" = type { %"struct.std::__cxx11::basic_string<char>::_Alloc_hider", i64, %union.anon }
%"struct.std::__cxx11::basic_string<char>::_Alloc_hider" = type { ptr }
%union.anon = type { i64, [8 x i8] }
%"class.std::__shared_count" = type { ptr }
%"class.std::basic_string_view" = type { i64, ptr }
%"struct.nix::SourcePath" = type { %"class.nix::ref.173", %"class.nix::CanonPath" }
%"class.nix::ref.173" = type { %"class.std::shared_ptr.174" }
%"class.std::shared_ptr.174" = type { %"class.std::__shared_ptr.175" }
%"class.std::__shared_ptr.175" = type { ptr, %"class.std::__shared_count" }
%"class.nix::CanonPath" = type { %"class.std::__cxx11::basic_string" }
%"class.std::optional.411" = type { %"struct.std::_Optional_base.412" }
%"struct.std::_Optional_base.412" = type { %"struct.std::_Optional_payload.414" }
%"struct.std::_Optional_payload.414" = type { %"struct.std::_Optional_payload_base.base.416", [7 x i8] }
%"struct.std::_Optional_payload_base.base.416" = type <{ %"union.std::_Optional_payload_base<unsigned long>::_Storage", i8 }>
%"union.std::_Optional_payload_base<unsigned long>::_Storage" = type { i64 }
%"struct.nix::SourceAccessor::Stat" = type { i32, [4 x i8], %"class.std::optional.411", i8, [7 x i8], %"class.std::optional.411" }

@.str.95 = private unnamed_addr constant [12 x i8] c"default.nix\00", align 1

; Function Attrs: mustprogress nounwind uwtable
define linkonce_odr noundef i64 @_ZNSt11char_traitsIcE6lengthEPKc(ptr noundef %0) #2 comdat align 2 {
  %2 = alloca ptr, align 8
  store ptr %0, ptr %2, align 8
  %3 = load ptr, ptr %2, align 8
  %4 = call i64 @strlen(ptr noundef %3) #1
  ret i64 %4
}

; Function Attrs: mustprogress nounwind uwtable
define linkonce_odr void @_ZNSt17basic_string_viewIcSt11char_traitsIcEEC2EPKc(ptr noundef nonnull align 8 dereferenceable(16) %0, ptr noundef nonnull %1) unnamed_addr #2 comdat align 2 {
  %3 = alloca ptr, align 8
  %4 = alloca ptr, align 8
  store ptr %0, ptr %3, align 8
  store ptr %1, ptr %4, align 8
  %5 = load ptr, ptr %3, align 8
  %6 = getelementptr inbounds %"class.std::basic_string_view", ptr %5, i32 0, i32 0
  %7 = load ptr, ptr %4, align 8
  %8 = call noundef i64 @_ZNSt11char_traitsIcE6lengthEPKc(ptr noundef %7)
  store i64 %8, ptr %6, align 8
  %9 = getelementptr inbounds %"class.std::basic_string_view", ptr %5, i32 0, i32 1
  %10 = load ptr, ptr %4, align 8
  store ptr %10, ptr %9, align 8
  ret void
}

; Function Attrs: mustprogress uwtable
define internal noundef zeroext i1 @_ZL9isNixExprRKN3nix10SourcePathERNS_14SourceAccessor4StatE(ptr noundef nonnull align 8 dereferenceable(48) %0, ptr noundef nonnull align 8 dereferenceable(48) %1) #5 personality ptr @__gxx_personality_v0 {
  %3 = alloca i1, align 1
  %4 = alloca ptr, align 8
  %5 = alloca ptr, align 8
  %6 = alloca %"struct.nix::SourcePath", align 8
  %7 = alloca %"struct.nix::SourcePath", align 8
  %8 = alloca %"class.std::basic_string_view", align 8
  %9 = alloca i1, align 1
  %10 = alloca ptr, align 8
  %11 = alloca i32, align 4
  %12 = alloca i1, align 1
  store ptr %0, ptr %4, align 8
  store ptr %1, ptr %5, align 8
  %13 = load ptr, ptr %5, align 8
  %14 = getelementptr inbounds %"struct.nix::SourceAccessor::Stat", ptr %13, i32 0, i32 0
  %15 = load i32, ptr %14, align 8
  %16 = icmp eq i32 %15, 0
  store i1 false, ptr %9, align 1
  store i1 false, ptr %12, align 1
  br i1 %16, label %33, label %17

17:                                               ; preds = %2
  %18 = load ptr, ptr %5, align 8
  %19 = getelementptr inbounds %"struct.nix::SourceAccessor::Stat", ptr %18, i32 0, i32 0
  %20 = load i32, ptr %19, align 8
  %21 = icmp eq i32 %20, 2
  br i1 %21, label %22, label %31

22:                                               ; preds = %17
  %23 = load ptr, ptr %4, align 8
  call void @_ZNSt17basic_string_viewIcSt11char_traitsIcEEC2EPKc(ptr noundef nonnull align 8 dereferenceable(16) %8, ptr noundef @.str.95) #1
  %24 = getelementptr inbounds { i64, ptr }, ptr %8, i32 0, i32 0
  %25 = load i64, ptr %24, align 8
  %26 = getelementptr inbounds { i64, ptr }, ptr %8, i32 0, i32 1
  %27 = load ptr, ptr %26, align 8
  call void @_ZNK3nix10SourcePathdvESt17basic_string_viewIcSt11char_traitsIcEE(ptr dead_on_unwind writable sret(%"struct.nix::SourcePath") align 8 %7, ptr noundef nonnull align 8 dereferenceable(48) %23, i64 %25, ptr %27)
  store i1 true, ptr %9, align 1
  invoke void @_ZNK3nix10SourcePath15resolveSymlinksENS_17SymlinkResolutionE(ptr dead_on_unwind writable sret(%"struct.nix::SourcePath") align 8 %6, ptr noundef nonnull align 8 dereferenceable(48) %7, i32 noundef 1)
          to label %28 unwind label %42

28:                                               ; preds = %22
  store i1 true, ptr %12, align 1
  %29 = invoke noundef zeroext i1 @_ZNK3nix10SourcePath10pathExistsEv(ptr noundef nonnull align 8 dereferenceable(48) %6)
          to label %30 unwind label %46

30:                                               ; preds = %28
  br label %31

31:                                               ; preds = %30, %17
  %32 = phi i1 [ false, %17 ], [ %29, %30 ]
  br label %33

33:                                               ; preds = %31, %2
  %34 = phi i1 [ true, %2 ], [ %32, %31 ]
  store i1 %34, ptr %3, align 1
  %35 = load i1, ptr %12, align 1
  br i1 %35, label %36, label %37

36:                                               ; preds = %33
  call void @_ZN3nix10SourcePathD2Ev(ptr noundef nonnull align 8 dereferenceable(48) %6) #1
  br label %37

37:                                               ; preds = %36, %33
  %38 = load i1, ptr %9, align 1
  br i1 %38, label %39, label %40

39:                                               ; preds = %37
  call void @_ZN3nix10SourcePathD2Ev(ptr noundef nonnull align 8 dereferenceable(48) %7) #1
  br label %40

40:                                               ; preds = %39, %37
  %41 = load i1, ptr %3, align 1
  ret i1 %41

42:                                               ; preds = %22
  %43 = landingpad { ptr, i32 }
          cleanup
  %44 = extractvalue { ptr, i32 } %43, 0
  store ptr %44, ptr %10, align 8
  %45 = extractvalue { ptr, i32 } %43, 1
  store i32 %45, ptr %11, align 4
  br label %53

46:                                               ; preds = %28
  %47 = landingpad { ptr, i32 }
          cleanup
  %48 = extractvalue { ptr, i32 } %47, 0
  store ptr %48, ptr %10, align 8
  %49 = extractvalue { ptr, i32 } %47, 1
  store i32 %49, ptr %11, align 4
  %50 = load i1, ptr %12, align 1
  br i1 %50, label %51, label %52

51:                                               ; preds = %46
  call void @_ZN3nix10SourcePathD2Ev(ptr noundef nonnull align 8 dereferenceable(48) %6) #1
  br label %52

52:                                               ; preds = %51, %46
  br label %53

53:                                               ; preds = %52, %42
  %54 = load i1, ptr %9, align 1
  br i1 %54, label %55, label %56

55:                                               ; preds = %53
  call void @_ZN3nix10SourcePathD2Ev(ptr noundef nonnull align 8 dereferenceable(48) %7) #1
  br label %56

56:                                               ; preds = %55, %53
  br label %57

57:                                               ; preds = %56
  %58 = load ptr, ptr %10, align 8
  %59 = load i32, ptr %11, align 4
  %60 = insertvalue { ptr, i32 } poison, ptr %58, 0
  %61 = insertvalue { ptr, i32 } %60, i32 %59, 1
  resume { ptr, i32 } %61
}