; Function Attrs: mustprogress uwtable
define internal fastcc noundef zeroext i1 @_ZL9isNixExprRKN3nix10SourcePathERNS_14SourceAccessor4StatE(ptr noundef nonnull align 8 dereferenceable(48) %0, i32 %.0.val) unnamed_addr #5 personality ptr @__gxx_personality_v0 {
  %2 = alloca %"struct.nix::SourcePath", align 8
  %3 = alloca %"struct.nix::SourcePath", align 8
  switch i32 %.0.val, label %.fold.split [
    i32 0, label %.critedge
    i32 2, label %4
  ]

4:                                                ; preds = %1
  call void @_ZNK3nix10SourcePathdvESt17basic_string_viewIcSt11char_traitsIcEE(ptr dead_on_unwind nonnull writable sret(%"struct.nix::SourcePath") align 8 %3, ptr noundef nonnull align 8 dereferenceable(48) %0, i64 11, ptr nonnull @.str.95)
  invoke void @_ZNK3nix10SourcePath15resolveSymlinksENS_17SymlinkResolutionE(ptr dead_on_unwind nonnull writable sret(%"struct.nix::SourcePath") align 8 %2, ptr noundef nonnull align 8 dereferenceable(48) %3, i32 noundef 1)
          to label %5 unwind label %95

5:                                                ; preds = %4
  %6 = invoke noundef zeroext i1 @_ZNK3nix10SourcePath10pathExistsEv(ptr noundef nonnull align 8 dereferenceable(48) %2)
          to label %7 unwind label %97

.fold.split:                                      ; preds = %1
  br label %.critedge

7:                                                ; preds = %5
  %8 = getelementptr inbounds i8, ptr %2, i64 16
  %9 = load ptr, ptr %8, align 8
  %10 = getelementptr inbounds i8, ptr %2, i64 32
  %11 = icmp eq ptr %9, %10
  br i1 %11, label %_ZNKSt7__cxx1112basic_stringIcSt11char_traitsIcESaIcEE11_M_is_localEv.exit.thread.i.i.i.i, label %_ZNKSt7__cxx1112basic_stringIcSt11char_traitsIcESaIcEE11_M_is_localEv.exit.i.i.i.i

_ZNKSt7__cxx1112basic_stringIcSt11char_traitsIcESaIcEE11_M_is_localEv.exit.thread.i.i.i.i: ; preds = %7
  %12 = getelementptr inbounds i8, ptr %2, i64 24
  %13 = load i64, ptr %12, align 8
  %14 = icmp ult i64 %13, 16
  call void @llvm.assume(i1 %14)
  br label %_ZN3nix9CanonPathD2Ev.exit.i

_ZNKSt7__cxx1112basic_stringIcSt11char_traitsIcESaIcEE11_M_is_localEv.exit.i.i.i.i: ; preds = %7
  call void @_ZdlPv(ptr noundef %9) #32
  br label %_ZN3nix9CanonPathD2Ev.exit.i

_ZN3nix9CanonPathD2Ev.exit.i:                     ; preds = %_ZNKSt7__cxx1112basic_stringIcSt11char_traitsIcESaIcEE11_M_is_localEv.exit.i.i.i.i, %_ZNKSt7__cxx1112basic_stringIcSt11char_traitsIcESaIcEE11_M_is_localEv.exit.thread.i.i.i.i
  call void @_ZNSaIcED2Ev(ptr noundef nonnull align 1 dereferenceable(1) %8) #29
  %15 = getelementptr inbounds i8, ptr %2, i64 8
  %16 = load ptr, ptr %15, align 8
  %.not.i.i.i.i.i = icmp eq ptr %16, null
  br i1 %.not.i.i.i.i.i, label %_ZN3nix10SourcePathD2Ev.exit, label %17

17:                                               ; preds = %_ZN3nix9CanonPathD2Ev.exit.i
  %18 = getelementptr inbounds i8, ptr %16, i64 8
  %19 = load atomic i64, ptr %18 acquire, align 8
  %20 = icmp eq i64 %19, 4294967297
  %21 = trunc i64 %19 to i32
  br i1 %20, label %22, label %27

22:                                               ; preds = %17
  store i32 0, ptr %18, align 8
  %23 = getelementptr inbounds i8, ptr %16, i64 12
  store i32 0, ptr %23, align 4
  %24 = load ptr, ptr %16, align 8
  %25 = getelementptr inbounds i8, ptr %24, i64 16
  %26 = load ptr, ptr %25, align 8
  call void %26(ptr noundef nonnull align 8 dereferenceable(16) %16) #29
  br label %_ZNSt16_Sp_counted_baseILN9__gnu_cxx12_Lock_policyE2EE24_M_release_last_use_coldEv.exit.sink.split.i.i.i.i.i.i

27:                                               ; preds = %17
  %28 = load i8, ptr @__libc_single_threaded, align 1
  %.not.i.i.i.i.i.i = icmp eq i8 %28, 0
  br i1 %.not.i.i.i.i.i.i, label %31, label %29

29:                                               ; preds = %27
  %30 = add nsw i32 %21, -1
  store i32 %30, ptr %18, align 4
  br label %33

31:                                               ; preds = %27
  %32 = atomicrmw volatile add ptr %18, i32 -1 acq_rel, align 4
  br label %33

33:                                               ; preds = %31, %29
  %.0.i.i.i.i.i.i = phi i32 [ %21, %29 ], [ %32, %31 ]
  %34 = icmp eq i32 %.0.i.i.i.i.i.i, 1
  br i1 %34, label %35, label %_ZN3nix10SourcePathD2Ev.exit

35:                                               ; preds = %33
  %36 = load ptr, ptr %16, align 8
  %37 = getelementptr inbounds i8, ptr %36, i64 16
  %38 = load ptr, ptr %37, align 8
  call void %38(ptr noundef nonnull align 8 dereferenceable(16) %16) #29
  %39 = getelementptr inbounds i8, ptr %16, i64 12
  %40 = load i8, ptr @__libc_single_threaded, align 1
  %.not.i.i.i.i.i.i.i.i = icmp eq i8 %40, 0
  br i1 %.not.i.i.i.i.i.i.i.i, label %44, label %41

41:                                               ; preds = %35
  %42 = load i32, ptr %39, align 4
  %43 = add nsw i32 %42, -1
  store i32 %43, ptr %39, align 4
  br label %46

44:                                               ; preds = %35
  %45 = atomicrmw volatile add ptr %39, i32 -1 acq_rel, align 4
  br label %46

46:                                               ; preds = %44, %41
  %.0.i.i.i.i.i.i.i.i = phi i32 [ %42, %41 ], [ %45, %44 ]
  %47 = icmp eq i32 %.0.i.i.i.i.i.i.i.i, 1
  br i1 %47, label %_ZNSt16_Sp_counted_baseILN9__gnu_cxx12_Lock_policyE2EE24_M_release_last_use_coldEv.exit.sink.split.i.i.i.i.i.i, label %_ZN3nix10SourcePathD2Ev.exit

_ZNSt16_Sp_counted_baseILN9__gnu_cxx12_Lock_policyE2EE24_M_release_last_use_coldEv.exit.sink.split.i.i.i.i.i.i: ; preds = %46, %22
  %48 = load ptr, ptr %16, align 8
  %49 = getelementptr inbounds i8, ptr %48, i64 24
  %50 = load ptr, ptr %49, align 8
  call void %50(ptr noundef nonnull align 8 dereferenceable(16) %16) #29
  br label %_ZN3nix10SourcePathD2Ev.exit

_ZN3nix10SourcePathD2Ev.exit:                     ; preds = %_ZN3nix9CanonPathD2Ev.exit.i, %33, %46, %_ZNSt16_Sp_counted_baseILN9__gnu_cxx12_Lock_policyE2EE24_M_release_last_use_coldEv.exit.sink.split.i.i.i.i.i.i
  %51 = getelementptr inbounds i8, ptr %3, i64 16
  %52 = load ptr, ptr %51, align 8
  %53 = getelementptr inbounds i8, ptr %3, i64 32
  %54 = icmp eq ptr %52, %53
  br i1 %54, label %_ZNKSt7__cxx1112basic_stringIcSt11char_traitsIcESaIcEE11_M_is_localEv.exit.thread.i.i.i.i22, label %_ZNKSt7__cxx1112basic_stringIcSt11char_traitsIcESaIcEE11_M_is_localEv.exit.i.i.i.i14

_ZNKSt7__cxx1112basic_stringIcSt11char_traitsIcESaIcEE11_M_is_localEv.exit.thread.i.i.i.i22: ; preds = %_ZN3nix10SourcePathD2Ev.exit
  %55 = getelementptr inbounds i8, ptr %3, i64 24
  %56 = load i64, ptr %55, align 8
  %57 = icmp ult i64 %56, 16
  call void @llvm.assume(i1 %57)
  br label %_ZN3nix9CanonPathD2Ev.exit.i15

_ZNKSt7__cxx1112basic_stringIcSt11char_traitsIcESaIcEE11_M_is_localEv.exit.i.i.i.i14: ; preds = %_ZN3nix10SourcePathD2Ev.exit
  call void @_ZdlPv(ptr noundef %52) #32
  br label %_ZN3nix9CanonPathD2Ev.exit.i15

_ZN3nix9CanonPathD2Ev.exit.i15:                   ; preds = %_ZNKSt7__cxx1112basic_stringIcSt11char_traitsIcESaIcEE11_M_is_localEv.exit.i.i.i.i14, %_ZNKSt7__cxx1112basic_stringIcSt11char_traitsIcESaIcEE11_M_is_localEv.exit.thread.i.i.i.i22
  call void @_ZNSaIcED2Ev(ptr noundef nonnull align 1 dereferenceable(1) %51) #29
  %58 = getelementptr inbounds i8, ptr %3, i64 8
  %59 = load ptr, ptr %58, align 8
  %.not.i.i.i.i.i16 = icmp eq ptr %59, null
  br i1 %.not.i.i.i.i.i16, label %.critedge, label %60

60:                                               ; preds = %_ZN3nix9CanonPathD2Ev.exit.i15
  %61 = getelementptr inbounds i8, ptr %59, i64 8
  %62 = load atomic i64, ptr %61 acquire, align 8
  %63 = icmp eq i64 %62, 4294967297
  %64 = trunc i64 %62 to i32
  br i1 %63, label %65, label %70

65:                                               ; preds = %60
  store i32 0, ptr %61, align 8
  %66 = getelementptr inbounds i8, ptr %59, i64 12
  store i32 0, ptr %66, align 4
  %67 = load ptr, ptr %59, align 8
  %68 = getelementptr inbounds i8, ptr %67, i64 16
  %69 = load ptr, ptr %68, align 8
  call void %69(ptr noundef nonnull align 8 dereferenceable(16) %59) #29
  br label %_ZNSt16_Sp_counted_baseILN9__gnu_cxx12_Lock_policyE2EE24_M_release_last_use_coldEv.exit.sink.split.i.i.i.i.i.i21

70:                                               ; preds = %60
  %71 = load i8, ptr @__libc_single_threaded, align 1
  %.not.i.i.i.i.i.i17 = icmp eq i8 %71, 0
  br i1 %.not.i.i.i.i.i.i17, label %74, label %72

72:                                               ; preds = %70
  %73 = add nsw i32 %64, -1
  store i32 %73, ptr %61, align 4
  br label %76

74:                                               ; preds = %70
  %75 = atomicrmw volatile add ptr %61, i32 -1 acq_rel, align 4
  br label %76

76:                                               ; preds = %74, %72
  %.0.i.i.i.i.i.i18 = phi i32 [ %64, %72 ], [ %75, %74 ]
  %77 = icmp eq i32 %.0.i.i.i.i.i.i18, 1
  br i1 %77, label %78, label %.critedge

78:                                               ; preds = %76
  %79 = load ptr, ptr %59, align 8
  %80 = getelementptr inbounds i8, ptr %79, i64 16
  %81 = load ptr, ptr %80, align 8
  call void %81(ptr noundef nonnull align 8 dereferenceable(16) %59) #29
  %82 = getelementptr inbounds i8, ptr %59, i64 12
  %83 = load i8, ptr @__libc_single_threaded, align 1
  %.not.i.i.i.i.i.i.i.i19 = icmp eq i8 %83, 0
  br i1 %.not.i.i.i.i.i.i.i.i19, label %87, label %84

84:                                               ; preds = %78
  %85 = load i32, ptr %82, align 4
  %86 = add nsw i32 %85, -1
  store i32 %86, ptr %82, align 4
  br label %89

87:                                               ; preds = %78
  %88 = atomicrmw volatile add ptr %82, i32 -1 acq_rel, align 4
  br label %89

89:                                               ; preds = %87, %84
  %.0.i.i.i.i.i.i.i.i20 = phi i32 [ %85, %84 ], [ %88, %87 ]
  %90 = icmp eq i32 %.0.i.i.i.i.i.i.i.i20, 1
  br i1 %90, label %_ZNSt16_Sp_counted_baseILN9__gnu_cxx12_Lock_policyE2EE24_M_release_last_use_coldEv.exit.sink.split.i.i.i.i.i.i21, label %.critedge

_ZNSt16_Sp_counted_baseILN9__gnu_cxx12_Lock_policyE2EE24_M_release_last_use_coldEv.exit.sink.split.i.i.i.i.i.i21: ; preds = %89, %65
  %91 = load ptr, ptr %59, align 8
  %92 = getelementptr inbounds i8, ptr %91, i64 24
  %93 = load ptr, ptr %92, align 8
  call void %93(ptr noundef nonnull align 8 dereferenceable(16) %59) #29
  br label %.critedge

.critedge:                                        ; preds = %.fold.split, %1, %_ZNSt16_Sp_counted_baseILN9__gnu_cxx12_Lock_policyE2EE24_M_release_last_use_coldEv.exit.sink.split.i.i.i.i.i.i21, %89, %76, %_ZN3nix9CanonPathD2Ev.exit.i15
  %94 = phi i1 [ %6, %_ZN3nix9CanonPathD2Ev.exit.i15 ], [ %6, %76 ], [ %6, %89 ], [ %6, %_ZNSt16_Sp_counted_baseILN9__gnu_cxx12_Lock_policyE2EE24_M_release_last_use_coldEv.exit.sink.split.i.i.i.i.i.i21 ], [ false, %.fold.split ], [ true, %1 ]
  ret i1 %94

95:                                               ; preds = %4
  %96 = landingpad { ptr, i32 }
          cleanup
  br label %99

97:                                               ; preds = %5
  %98 = landingpad { ptr, i32 }
          cleanup
  call void @_ZN3nix10SourcePathD2Ev(ptr noundef nonnull align 8 dereferenceable(48) %2) #29
  br label %99

99:                                               ; preds = %95, %97
  %.pn = phi { ptr, i32 } [ %98, %97 ], [ %96, %95 ]
  call void @_ZN3nix10SourcePathD2Ev(ptr noundef nonnull align 8 dereferenceable(48) %3) #29
  resume { ptr, i32 } %.pn
}